Certificate:
    Data:
        Version: 1 (0x0)
        Serial Number: 4100 (0x1004)
        Signature Algorithm: sha256WithRSAEncryption
        Issuer: C=US, ST=NY, O=Columbia University, OU=fwh2110-sd3013, CN=Intermediate CA
        Validity
            Not Before: Dec 19 05:16:21 2020 GMT
            Not After : Dec 29 05:16:21 2021 GMT
        Subject: C=US, ST=California, O=Sam Ltd, CN=sam
        Subject Public Key Info:
            Public Key Algorithm: rsaEncryption
                RSA Public-Key: (2048 bit)
                Modulus:
                    00:ed:d0:b0:ef:06:3a:52:b7:a2:5a:61:f0:50:68:
                    f6:38:32:5a:f5:12:a3:14:74:10:53:98:6f:99:44:
                    29:c9:c4:35:8f:59:9d:15:0f:b0:03:e9:34:fc:e8:
                    55:22:ac:d3:12:02:ac:94:f2:dc:79:fc:d4:83:bd:
                    19:c5:de:7a:b0:93:ba:87:f0:c8:0b:42:31:cc:b2:
                    95:b6:e6:66:3d:dc:02:cc:57:21:e0:35:dc:71:74:
                    c2:e2:8c:c2:2c:89:dc:af:12:c1:58:38:c1:71:d0:
                    f3:b2:87:c9:b8:6d:32:e5:2a:5c:01:b5:75:1a:0b:
                    46:a9:49:23:f8:91:09:25:59:77:cd:9b:8e:46:ba:
                    56:bc:16:3f:2f:30:af:19:5a:86:75:91:07:29:eb:
                    a0:0c:e3:65:fa:31:8a:19:01:0b:d5:92:0f:ff:d6:
                    aa:de:61:3f:ad:bc:75:d2:4f:9a:6f:d3:c0:0a:ca:
                    f6:32:3d:fa:32:e1:25:9b:39:77:b1:8b:40:76:a4:
                    f0:59:d1:1a:de:60:0c:3a:f4:3c:d4:0c:4a:46:fc:
                    3b:e1:a6:54:0c:c2:37:2d:e7:de:a1:e0:67:f2:74:
                    bb:0f:01:8c:45:c9:08:c6:d2:f3:52:c6:86:80:7c:
                    f1:2e:83:74:93:47:51:64:27:a2:30:6b:95:22:e8:
                    6e:2d
                Exponent: 65537 (0x10001)
    Signature Algorithm: sha256WithRSAEncryption
         3e:92:1a:49:da:22:34:63:2b:93:b9:3f:1d:c8:ef:ca:dd:cf:
         50:cd:6f:53:a9:aa:96:29:b4:10:48:b9:f6:f7:30:0b:4e:6f:
         78:ab:03:81:a5:69:43:80:9d:c4:78:f8:11:f6:9a:d1:15:7c:
         ee:bb:8e:0b:8c:8e:1a:e4:c2:3b:b2:a4:f8:be:fa:cd:a1:e3:
         48:30:dc:e2:2a:74:c2:9c:93:a5:3a:c7:c6:40:08:95:b7:04:
         f4:43:1e:e7:3d:8e:88:7f:74:61:1d:2e:4d:26:d2:48:8a:b1:
         dd:d9:3a:8f:02:60:05:94:3d:db:46:2c:e2:05:c3:89:df:12:
         23:48:22:3b:f2:b7:25:52:f6:19:82:1f:b3:e8:4c:a6:ef:e5:
         9b:69:b9:d4:1b:c0:e7:07:e6:db:7e:f5:1c:54:6e:69:65:49:
         87:96:8e:cb:fa:ab:5a:2d:9e:41:56:62:87:ca:5b:bc:de:ed:
         63:ed:d0:9e:fd:c0:24:f6:a2:55:26:54:bf:85:cd:dd:f5:01:
         74:12:b2:29:a9:85:6f:0a:8e:56:e7:ca:b3:6a:90:e7:01:73:
         98:98:c6:ba:e7:64:91:92:bd:78:8c:54:d1:86:d2:b8:24:42:
         30:d5:07:ea:94:5f:07:a5:d8:21:99:bc:50:ed:6f:ab:e2:bc:
         35:37:5d:3f:c0:5e:f4:92:7f:05:7a:a6:de:33:4e:81:dc:a4:
         94:64:a3:4e:31:34:25:c7:c9:0f:7e:5f:c3:26:45:e8:6b:28:
         eb:83:86:5c:96:4d:1c:40:01:33:ca:f2:12:34:61:4c:1e:36:
         d0:a1:e3:8a:eb:28:f1:29:6a:f9:63:5c:c7:01:f4:fb:39:a3:
         6c:55:2b:1e:4d:f3:b0:dd:81:a4:97:42:aa:cc:8b:28:37:67:
         f6:8e:c7:9f:74:85:96:c5:8b:87:f6:60:2e:39:5a:5f:47:86:
         68:d0:20:7f:90:3c:79:61:55:61:3a:7f:29:58:36:5e:45:e2:
         15:a5:b7:d7:68:6d:73:2c:32:2a:b2:bb:f0:65:0b:7e:c8:6a:
         1d:02:46:2c:e2:0c:37:e3:a3:e5:c1:ef:4b:48:49:3f:e8:53:
         0b:ab:9f:b6:37:6f:49:51:3e:3e:1e:32:f7:85:e4:fd:c5:f2:
         02:86:2a:3a:da:2a:7c:0c:a6:e7:33:7b:e0:d9:81:d8:1c:72:
         99:47:f6:44:20:4a:84:86:25:c1:3f:67:a8:d2:f3:0a:1e:81:
         78:0c:4b:9e:a9:7b:24:00:6a:5e:c1:3e:b1:40:7b:27:a5:3f:
         f5:7f:a8:11:ed:9c:8b:a1:98:84:61:40:d3:cb:22:ad:3c:a0:
         19:60:27:23:88:bd:f6:42
-----BEGIN CERTIFICATE-----
MIIEIjCCAgoCAhAEMA0GCSqGSIb3DQEBCwUAMGsxCzAJBgNVBAYTAlVTMQswCQYD
VQQIDAJOWTEcMBoGA1UECgwTQ29sdW1iaWEgVW5pdmVyc2l0eTEXMBUGA1UECwwO
ZndoMjExMC1zZDMwMTMxGDAWBgNVBAMMD0ludGVybWVkaWF0ZSBDQTAeFw0yMDEy
MTkwNTE2MjFaFw0yMTEyMjkwNTE2MjFaMEIxCzAJBgNVBAYTAlVTMRMwEQYDVQQI
DApDYWxpZm9ybmlhMRAwDgYDVQQKDAdTYW0gTHRkMQwwCgYDVQQDDANzYW0wggEi
MA0GCSqGSIb3DQEBAQUAA4IBDwAwggEKAoIBAQDt0LDvBjpSt6JaYfBQaPY4Mlr1
EqMUdBBTmG+ZRCnJxDWPWZ0VD7AD6TT86FUirNMSAqyU8tx5/NSDvRnF3nqwk7qH
8MgLQjHMspW25mY93ALMVyHgNdxxdMLijMIsidyvEsFYOMFx0POyh8m4bTLlKlwB
tXUaC0apSSP4kQklWXfNm45Gula8Fj8vMK8ZWoZ1kQcp66AM42X6MYoZAQvVkg//
1qreYT+tvHXST5pv08AKyvYyPfoy4SWbOXexi0B2pPBZ0RreYAw69DzUDEpG/Dvh
plQMwjct596h4GfydLsPAYxFyQjG0vNSxoaAfPEug3STR1FkJ6Iwa5Ui6G4tAgMB
AAEwDQYJKoZIhvcNAQELBQADggIBAD6SGknaIjRjK5O5Px3I78rdz1DNb1OpqpYp
tBBIufb3MAtOb3irA4GlaUOAncR4+BH2mtEVfO67jguMjhrkwjuypPi++s2h40gw
3OIqdMKck6U6x8ZACJW3BPRDHuc9joh/dGEdLk0m0kiKsd3ZOo8CYAWUPdtGLOIF
w4nfEiNIIjvytyVS9hmCH7PoTKbv5ZtpudQbwOcH5tt+9RxUbmllSYeWjsv6q1ot
nkFWYofKW7ze7WPt0J79wCT2olUmVL+Fzd31AXQSsimphW8KjlbnyrNqkOcBc5iY
xrrnZJGSvXiMVNGG0rgkQjDVB+qUXwel2CGZvFDtb6vivDU3XT/AXvSSfwV6pt4z
ToHcpJRko04xNCXHyQ9+X8MmRehrKOuDhlyWTRxAATPK8hI0YUweNtCh44rrKPEp
avljXMcB9Ps5o2xVKx5N87DdgaSXQqrMiyg3Z/aOx590hZbFi4f2YC45Wl9HhmjQ
IH+QPHlhVWE6fylYNl5F4hWlt9dobXMsMiqyu/BlC37Iah0CRiziDDfjo+XB70tI
ST/oUwurn7Y3b0lRPj4eMveF5P3F8gKGKjraKnwMpucze+DZgdgccplH9kQgSoSG
JcE/Z6jS8woegXgMS56peyQAal7BPrFAeyelP/V/qBHtnIuhmIRhQNPLIq08oBlg
JyOIvfZC
-----END CERTIFICATE-----
